; Function Attrs: mustprogress nofree norecurse nosync nounwind willreturn memory(argmem: readwrite) uwtable
define range(i64 -60, 1) i64 @ZSTD_CCtx_refThreadPool(ptr noundef captures(none) %0, ptr noundef %1) local_unnamed_addr #7 {
  %3 = getelementptr inbounds nuw i8, ptr %0, i64 3640
  %4 = load i32, ptr %3, align 8, !tbaa !81
  %.not = icmp eq i32 %4, 0
  br i1 %.not, label %5, label %7

5:                                                ; preds = %2
  %6 = getelementptr inbounds nuw i8, ptr %0, i64 920
  store ptr %1, ptr %6, align 8, !tbaa !124
  br label %7

7:                                                ; preds = %2, %5
  %.0 = phi i64 [ 0, %5 ], [ -60, %2 ]
  ret i64 %.0
}